(dp1
S'person_id'
p2
(dp3
S'length'
p4
I512
sS'unique'
p5
I00
sS'sortable'
p6
I2
sS'sql'
p7
S'INTEGER'
p8
sS'notnull'
p9
I01
sS'type'
p10
S'reference person'
p11
ssS'group_id'
p12
(dp13
g4
I512
sg5
I00
sg6
I1
sg7
g8
sg9
I01
sg10
S'reference groups'
p14
ss.