(dp1
S'id'
p2
(dp3
S'sortable'
p4
I1
sS'sql'
p5
S'SERIAL PRIMARY KEY'
p6
sS'length'
p7
I512
sS'notnull'
p8
I00
sS'unique'
p9
I00
sS'type'
p10
S'id'
p11
ssS'file'
p12
(dp13
S'sortable'
p14
I3
sS'sql'
p15
S'VARCHAR(512) NOT NULL'
p16
sS'length'
p17
I512
sS'notnull'
p18
I01
sS'unique'
p19
I00
sS'type'
p20
S'upload'
p21
ssS'name'
p22
(dp23
g4
I2
sg5
S'VARCHAR(512) NOT NULL'
p24
sg7
I512
sg8
I01
sg9
I00
sg10
S'string'
p25
ss.